; ModuleID = '15/88.c'
source_filename = "15/88.c"
target datalayout = "e-m:e-p270:32:32-p271:32:32-p272:64:64-i64:64-f80:128-n8:16:32:64-S128"
target triple = "x86_64-pc-linux-gnu"

@.str = private unnamed_addr constant [3 x i8] c"%d\00", align 1
@.str.1 = private unnamed_addr constant [2 x i8] c"\0A\00", align 1

; Function Attrs: noinline nounwind uwtable
define dso_local i32 @main(i32 %0, i8** %1) #0 {
  %3 = alloca i32, align 4
  %4 = alloca i32, align 4
  %5 = alloca i8**, align 8
  %6 = alloca i32, align 4
  %7 = alloca i32, align 4
  %8 = alloca i32, align 4
  %9 = alloca i32, align 4
  %10 = alloca [100 x [100 x i32]], align 16
  %11 = alloca [2 x i32], align 4
  %12 = alloca [2 x i32], align 4
  %13 = alloca i32, align 4
  store i32 0, i32* %3, align 4
  store i32 %0, i32* %4, align 4
  store i8** %1, i8*** %5, align 8
  store i32 0, i32* %9, align 4
  %14 = call i32 (i8*, ...) @__isoc99_scanf(i8* getelementptr inbounds ([3 x i8], [3 x i8]* @.str, i64 0, i64 0), i32* %6)
  store i32 0, i32* %7, align 4
  br label %15

15:                                               ; preds = %44, %2
  %16 = load i32, i32* %7, align 4
  %17 = load i32, i32* %6, align 4
  %18 = icmp slt i32 %16, %17
  br i1 %18, label %19, label %47

19:                                               ; preds = %15
  store i32 0, i32* %8, align 4
  br label %20

20:                                               ; preds = %40, %19
  %21 = load i32, i32* %8, align 4
  %22 = load i32, i32* %6, align 4
  %23 = icmp slt i32 %21, %22
  br i1 %23, label %24, label %43

24:                                               ; preds = %20
  %25 = load i32, i32* %7, align 4
  %26 = sext i32 %25 to i64
  %27 = getelementptr inbounds [100 x [100 x i32]], [100 x [100 x i32]]* %10, i64 0, i64 %26
  %28 = load i32, i32* %8, align 4
  %29 = sext i32 %28 to i64
  %30 = getelementptr inbounds [100 x i32], [100 x i32]* %27, i64 0, i64 %29
  %31 = call i32 (i8*, ...) @__isoc99_scanf(i8* getelementptr inbounds ([3 x i8], [3 x i8]* @.str, i64 0, i64 0), i32* %30)
  %32 = load i32, i32* %8, align 4
  %33 = add nsw i32 %32, 1
  %34 = load i32, i32* %6, align 4
  %35 = srem i32 %33, %34
  %36 = icmp eq i32 %35, 0
  br i1 %36, label %37, label %39

37:                                               ; preds = %24
  %38 = call i32 (i8*, ...) @printf(i8* getelementptr inbounds ([2 x i8], [2 x i8]* @.str.1, i64 0, i64 0))
  br label %39

39:                                               ; preds = %37, %24
  br label %40

40:                                               ; preds = %39
  %41 = load i32, i32* %8, align 4
  %42 = add nsw i32 %41, 1
  store i32 %42, i32* %8, align 4
  br label %20

43:                                               ; preds = %20
  br label %44

44:                                               ; preds = %43
  %45 = load i32, i32* %7, align 4
  %46 = add nsw i32 %45, 1
  store i32 %46, i32* %7, align 4
  br label %15

47:                                               ; preds = %15
  store i32 0, i32* %13, align 4
  store i32 0, i32* %7, align 4
  br label %48

48:                                               ; preds = %86, %47
  %49 = load i32, i32* %7, align 4
  %50 = load i32, i32* %6, align 4
  %51 = icmp slt i32 %49, %50
  br i1 %51, label %52, label %55

52:                                               ; preds = %48
  %53 = load i32, i32* %13, align 4
  %54 = icmp eq i32 %53, 0
  br label %55

55:                                               ; preds = %52, %48
  %56 = phi i1 [ false, %48 ], [ %54, %52 ]
  br i1 %56, label %57, label %89

57:                                               ; preds = %55
  store i32 0, i32* %8, align 4
  br label %58

58:                                               ; preds = %82, %57
  %59 = load i32, i32* %8, align 4
  %60 = load i32, i32* %6, align 4
  %61 = icmp slt i32 %59, %60
  br i1 %61, label %62, label %65

62:                                               ; preds = %58
  %63 = load i32, i32* %13, align 4
  %64 = icmp eq i32 %63, 0
  br label %65

65:                                               ; preds = %62, %58
  %66 = phi i1 [ false, %58 ], [ %64, %62 ]
  br i1 %66, label %67, label %85

67:                                               ; preds = %65
  %68 = load i32, i32* %7, align 4
  %69 = sext i32 %68 to i64
  %70 = getelementptr inbounds [100 x [100 x i32]], [100 x [100 x i32]]* %10, i64 0, i64 %69
  %71 = load i32, i32* %8, align 4
  %72 = sext i32 %71 to i64
  %73 = getelementptr inbounds [100 x i32], [100 x i32]* %70, i64 0, i64 %72
  %74 = load i32, i32* %73, align 4
  %75 = icmp eq i32 %74, 0
  br i1 %75, label %76, label %81

76:                                               ; preds = %67
  %77 = load i32, i32* %7, align 4
  %78 = getelementptr inbounds [2 x i32], [2 x i32]* %11, i64 0, i64 0
  store i32 %77, i32* %78, align 4
  %79 = load i32, i32* %8, align 4
  %80 = getelementptr inbounds [2 x i32], [2 x i32]* %11, i64 0, i64 1
  store i32 %79, i32* %80, align 4
  store i32 1, i32* %13, align 4
  br label %85

81:                                               ; preds = %67
  br label %82

82:                                               ; preds = %81
  %83 = load i32, i32* %8, align 4
  %84 = add nsw i32 %83, 1
  store i32 %84, i32* %8, align 4
  br label %58

85:                                               ; preds = %76, %65
  br label %86

86:                                               ; preds = %85
  %87 = load i32, i32* %7, align 4
  %88 = add nsw i32 %87, 1
  store i32 %88, i32* %7, align 4
  br label %48

89:                                               ; preds = %55
  %90 = load i32, i32* %6, align 4
  %91 = sub nsw i32 %90, 1
  store i32 %91, i32* %7, align 4
  br label %92

92:                                               ; preds = %130, %89
  %93 = load i32, i32* %7, align 4
  %94 = icmp sge i32 %93, 0
  br i1 %94, label %95, label %98

95:                                               ; preds = %92
  %96 = load i32, i32* %13, align 4
  %97 = icmp eq i32 %96, 1
  br label %98

98:                                               ; preds = %95, %92
  %99 = phi i1 [ false, %92 ], [ %97, %95 ]
  br i1 %99, label %100, label %133

100:                                              ; preds = %98
  %101 = load i32, i32* %6, align 4
  %102 = sub nsw i32 %101, 1
  store i32 %102, i32* %8, align 4
  br label %103

103:                                              ; preds = %126, %100
  %104 = load i32, i32* %8, align 4
  %105 = icmp sge i32 %104, 0
  br i1 %105, label %106, label %109

106:                                              ; preds = %103
  %107 = load i32, i32* %13, align 4
  %108 = icmp eq i32 %107, 1
  br label %109

109:                                              ; preds = %106, %103
  %110 = phi i1 [ false, %103 ], [ %108, %106 ]
  br i1 %110, label %111, label %129

111:                                              ; preds = %109
  %112 = load i32, i32* %7, align 4
  %113 = sext i32 %112 to i64
  %114 = getelementptr inbounds [100 x [100 x i32]], [100 x [100 x i32]]* %10, i64 0, i64 %113
  %115 = load i32, i32* %8, align 4
  %116 = sext i32 %115 to i64
  %117 = getelementptr inbounds [100 x i32], [100 x i32]* %114, i64 0, i64 %116
  %118 = load i32, i32* %117, align 4
  %119 = icmp eq i32 %118, 0
  br i1 %119, label %120, label %125

120:                                              ; preds = %111
  %121 = load i32, i32* %7, align 4
  %122 = getelementptr inbounds [2 x i32], [2 x i32]* %12, i64 0, i64 0
  store i32 %121, i32* %122, align 4
  %123 = load i32, i32* %8, align 4
  %124 = getelementptr inbounds [2 x i32], [2 x i32]* %12, i64 0, i64 1
  store i32 %123, i32* %124, align 4
  store i32 0, i32* %13, align 4
  br label %129

125:                                              ; preds = %111
  br label %126

126:                                              ; preds = %125
  %127 = load i32, i32* %8, align 4
  %128 = add nsw i32 %127, -1
  store i32 %128, i32* %8, align 4
  br label %103

129:                                              ; preds = %120, %109
  br label %130

130:                                              ; preds = %129
  %131 = load i32, i32* %7, align 4
  %132 = add nsw i32 %131, -1
  store i32 %132, i32* %7, align 4
  br label %92

133:                                              ; preds = %98
  %134 = load i32, i32* %9, align 4
  %135 = getelementptr inbounds [2 x i32], [2 x i32]* %12, i64 0, i64 1
  %136 = load i32, i32* %135, align 4
  %137 = getelementptr inbounds [2 x i32], [2 x i32]* %11, i64 0, i64 1
  %138 = load i32, i32* %137, align 4
  %139 = sub nsw i32 %136, %138
  %140 = sub nsw i32 %139, 1
  %141 = getelementptr inbounds [2 x i32], [2 x i32]* %12, i64 0, i64 0
  %142 = load i32, i32* %141, align 4
  %143 = getelementptr inbounds [2 x i32], [2 x i32]* %11, i64 0, i64 0
  %144 = load i32, i32* %143, align 4
  %145 = sub nsw i32 %142, %144
  %146 = sub nsw i32 %145, 1
  %147 = mul nsw i32 %140, %146
  %148 = add nsw i32 %134, %147
  store i32 %148, i32* %9, align 4
  %149 = load i32, i32* %9, align 4
  %150 = call i32 (i8*, ...) @printf(i8* getelementptr inbounds ([3 x i8], [3 x i8]* @.str, i64 0, i64 0), i32 %149)
  ret i32 0
}

declare dso_local i32 @__isoc99_scanf(i8*, ...) #1

declare dso_local i32 @printf(i8*, ...) #1


!llvm.module.flags = !{!0}
!llvm.ident = !{!1}

!0 = !{i32 1, !"wchar_size", i32 4}
!1 = !{!"clang version 10.0.0-4ubuntu1 "}
